
./build/basic_test.elf:     file format elf64-littleriscv


Disassembly of section .text:

0000000080000000 <_start>:
    80000000:	00009117          	auipc	sp,0x9
    80000004:	00010113          	mv	sp,sp
    80000008:	04c000ef          	jal	ra,80000054 <main>

000000008000000c <halt>:
    8000000c:	0000006f          	j	8000000c <halt>

0000000080000010 <_Z7add_twojj>:
    80000010:	fe010113          	addi	sp,sp,-32 # 80008fe0 <_stack_top+0x7fe0>
    80000014:	00813c23          	sd	s0,24(sp)
    80000018:	02010413          	addi	s0,sp,32
    8000001c:	00050793          	mv	a5,a0
    80000020:	00058713          	mv	a4,a1
    80000024:	fef42623          	sw	a5,-20(s0)
    80000028:	00070793          	mv	a5,a4
    8000002c:	fef42423          	sw	a5,-24(s0)
    80000030:	fec42783          	lw	a5,-20(s0)
    80000034:	00078713          	mv	a4,a5
    80000038:	fe842783          	lw	a5,-24(s0)
    8000003c:	00f707bb          	addw	a5,a4,a5
    80000040:	0007879b          	sext.w	a5,a5
    80000044:	00078513          	mv	a0,a5
    80000048:	01813403          	ld	s0,24(sp)
    8000004c:	02010113          	addi	sp,sp,32
    80000050:	00008067          	ret

0000000080000054 <main>:
    80000054:	fe010113          	addi	sp,sp,-32
    80000058:	00113c23          	sd	ra,24(sp)
    8000005c:	00813823          	sd	s0,16(sp)
    80000060:	02010413          	addi	s0,sp,32
    80000064:	00100793          	li	a5,1
    80000068:	fef42623          	sw	a5,-20(s0)
    8000006c:	00200793          	li	a5,2
    80000070:	fef42423          	sw	a5,-24(s0)
    80000074:	fe842703          	lw	a4,-24(s0)
    80000078:	fec42783          	lw	a5,-20(s0)
    8000007c:	00070593          	mv	a1,a4
    80000080:	00078513          	mv	a0,a5
    80000084:	f8dff0ef          	jal	ra,80000010 <_Z7add_twojj>
    80000088:	00050793          	mv	a5,a0
    8000008c:	0007879b          	sext.w	a5,a5
    80000090:	0007879b          	sext.w	a5,a5
    80000094:	00078513          	mv	a0,a5
    80000098:	01813083          	ld	ra,24(sp)
    8000009c:	01013403          	ld	s0,16(sp)
    800000a0:	02010113          	addi	sp,sp,32
    800000a4:	00008067          	ret
