
./build/bubble_sort.elf:     file format elf64-littleriscv


Disassembly of section .text:

0000000080000000 <_start>:
    80000000:	02009117          	auipc	sp,0x2009
    80000004:	00010113          	mv	sp,sp
    80000008:	394000ef          	jal	ra,8000039c <main>

000000008000000c <halt>:
    8000000c:	0000006f          	j	8000000c <halt>

0000000080000010 <_ZL5errorv>:
    80000010:	ff010113          	addi	sp,sp,-16 # 82008ff0 <_stack_top+0x7ff0>
    80000014:	00813423          	sd	s0,8(sp)
    80000018:	01010413          	addi	s0,sp,16
    8000001c:	0000006f          	j	8000001c <_ZL5errorv+0xc>

0000000080000020 <_ZL5checkb>:
    80000020:	fe010113          	addi	sp,sp,-32
    80000024:	00113c23          	sd	ra,24(sp)
    80000028:	00813823          	sd	s0,16(sp)
    8000002c:	02010413          	addi	s0,sp,32
    80000030:	00050793          	mv	a5,a0
    80000034:	fef407a3          	sb	a5,-17(s0)
    80000038:	fef44783          	lbu	a5,-17(s0)
    8000003c:	0017c793          	xori	a5,a5,1
    80000040:	0ff7f793          	zext.b	a5,a5
    80000044:	00078463          	beqz	a5,8000004c <_ZL5checkb+0x2c>
    80000048:	fc9ff0ef          	jal	ra,80000010 <_ZL5errorv>
    8000004c:	00000013          	nop
    80000050:	01813083          	ld	ra,24(sp)
    80000054:	01013403          	ld	s0,16(sp)
    80000058:	02010113          	addi	sp,sp,32
    8000005c:	00008067          	ret

0000000080000060 <_ZL4putsPc>:
    80000060:	fe010113          	addi	sp,sp,-32
    80000064:	00813c23          	sd	s0,24(sp)
    80000068:	02010413          	addi	s0,sp,32
    8000006c:	fea43423          	sd	a0,-24(s0)
    80000070:	0200006f          	j	80000090 <_ZL4putsPc+0x30>
    80000074:	fe843783          	ld	a5,-24(s0)
    80000078:	00178713          	addi	a4,a5,1
    8000007c:	fee43423          	sd	a4,-24(s0)
    80000080:	0007c703          	lbu	a4,0(a5)
    80000084:	08300793          	li	a5,131
    80000088:	01879793          	slli	a5,a5,0x18
    8000008c:	00e7b023          	sd	a4,0(a5)
    80000090:	fe843783          	ld	a5,-24(s0)
    80000094:	0007c783          	lbu	a5,0(a5)
    80000098:	fc079ee3          	bnez	a5,80000074 <_ZL4putsPc+0x14>
    8000009c:	00000013          	nop
    800000a0:	00000013          	nop
    800000a4:	01813403          	ld	s0,24(sp)
    800000a8:	02010113          	addi	sp,sp,32
    800000ac:	00008067          	ret

00000000800000b0 <_ZL6strlenPc>:
    800000b0:	fd010113          	addi	sp,sp,-48
    800000b4:	02813423          	sd	s0,40(sp)
    800000b8:	03010413          	addi	s0,sp,48
    800000bc:	fca43c23          	sd	a0,-40(s0)
    800000c0:	fe042623          	sw	zero,-20(s0)
    800000c4:	0100006f          	j	800000d4 <_ZL6strlenPc+0x24>
    800000c8:	fec42783          	lw	a5,-20(s0)
    800000cc:	0017879b          	addiw	a5,a5,1
    800000d0:	fef42623          	sw	a5,-20(s0)
    800000d4:	fd843783          	ld	a5,-40(s0)
    800000d8:	00178713          	addi	a4,a5,1
    800000dc:	fce43c23          	sd	a4,-40(s0)
    800000e0:	0007c783          	lbu	a5,0(a5)
    800000e4:	0007879b          	sext.w	a5,a5
    800000e8:	00f037b3          	snez	a5,a5
    800000ec:	0ff7f793          	zext.b	a5,a5
    800000f0:	fc079ce3          	bnez	a5,800000c8 <_ZL6strlenPc+0x18>
    800000f4:	fec42783          	lw	a5,-20(s0)
    800000f8:	00078513          	mv	a0,a5
    800000fc:	02813403          	ld	s0,40(sp)
    80000100:	03010113          	addi	sp,sp,48
    80000104:	00008067          	ret

0000000080000108 <_ZL6strrevPc>:
    80000108:	fc010113          	addi	sp,sp,-64
    8000010c:	02113c23          	sd	ra,56(sp)
    80000110:	02813823          	sd	s0,48(sp)
    80000114:	04010413          	addi	s0,sp,64
    80000118:	fca43423          	sd	a0,-56(s0)
    8000011c:	fc843503          	ld	a0,-56(s0)
    80000120:	f91ff0ef          	jal	ra,800000b0 <_ZL6strlenPc>
    80000124:	00050793          	mv	a5,a0
    80000128:	fcf42e23          	sw	a5,-36(s0)
    8000012c:	fdc42783          	lw	a5,-36(s0)
    80000130:	fff78793          	addi	a5,a5,-1
    80000134:	fc843703          	ld	a4,-56(s0)
    80000138:	00f707b3          	add	a5,a4,a5
    8000013c:	fef43423          	sd	a5,-24(s0)
    80000140:	fc843783          	ld	a5,-56(s0)
    80000144:	fef43023          	sd	a5,-32(s0)
    80000148:	0440006f          	j	8000018c <_ZL6strrevPc+0x84>
    8000014c:	fe043783          	ld	a5,-32(s0)
    80000150:	0007c783          	lbu	a5,0(a5)
    80000154:	fcf40da3          	sb	a5,-37(s0)
    80000158:	fe843783          	ld	a5,-24(s0)
    8000015c:	0007c703          	lbu	a4,0(a5)
    80000160:	fe043783          	ld	a5,-32(s0)
    80000164:	00e78023          	sb	a4,0(a5)
    80000168:	fe843783          	ld	a5,-24(s0)
    8000016c:	fdb44703          	lbu	a4,-37(s0)
    80000170:	00e78023          	sb	a4,0(a5)
    80000174:	fe043783          	ld	a5,-32(s0)
    80000178:	00178793          	addi	a5,a5,1
    8000017c:	fef43023          	sd	a5,-32(s0)
    80000180:	fe843783          	ld	a5,-24(s0)
    80000184:	fff78793          	addi	a5,a5,-1
    80000188:	fef43423          	sd	a5,-24(s0)
    8000018c:	fe043703          	ld	a4,-32(s0)
    80000190:	fe843783          	ld	a5,-24(s0)
    80000194:	faf76ce3          	bltu	a4,a5,8000014c <_ZL6strrevPc+0x44>
    80000198:	00000013          	nop
    8000019c:	00000013          	nop
    800001a0:	03813083          	ld	ra,56(sp)
    800001a4:	03013403          	ld	s0,48(sp)
    800001a8:	04010113          	addi	sp,sp,64
    800001ac:	00008067          	ret

00000000800001b0 <_ZL4itoaiPc>:
    800001b0:	fd010113          	addi	sp,sp,-48
    800001b4:	02113423          	sd	ra,40(sp)
    800001b8:	02813023          	sd	s0,32(sp)
    800001bc:	03010413          	addi	s0,sp,48
    800001c0:	00050793          	mv	a5,a0
    800001c4:	fcb43823          	sd	a1,-48(s0)
    800001c8:	fcf42e23          	sw	a5,-36(s0)
    800001cc:	fdc42783          	lw	a5,-36(s0)
    800001d0:	0007879b          	sext.w	a5,a5
    800001d4:	00079a63          	bnez	a5,800001e8 <_ZL4itoaiPc+0x38>
    800001d8:	fd043783          	ld	a5,-48(s0)
    800001dc:	03000713          	li	a4,48
    800001e0:	00e78023          	sb	a4,0(a5)
    800001e4:	07c0006f          	j	80000260 <_ZL4itoaiPc+0xb0>
    800001e8:	fe042623          	sw	zero,-20(s0)
    800001ec:	0500006f          	j	8000023c <_ZL4itoaiPc+0x8c>
    800001f0:	fdc42783          	lw	a5,-36(s0)
    800001f4:	00078713          	mv	a4,a5
    800001f8:	00a00793          	li	a5,10
    800001fc:	02f767bb          	remw	a5,a4,a5
    80000200:	0007879b          	sext.w	a5,a5
    80000204:	0ff7f793          	zext.b	a5,a5
    80000208:	0307879b          	addiw	a5,a5,48
    8000020c:	0ff7f713          	zext.b	a4,a5
    80000210:	fd043683          	ld	a3,-48(s0)
    80000214:	fec42783          	lw	a5,-20(s0)
    80000218:	0017861b          	addiw	a2,a5,1
    8000021c:	fec42623          	sw	a2,-20(s0)
    80000220:	00f687b3          	add	a5,a3,a5
    80000224:	00e78023          	sb	a4,0(a5)
    80000228:	fdc42783          	lw	a5,-36(s0)
    8000022c:	00078713          	mv	a4,a5
    80000230:	00a00793          	li	a5,10
    80000234:	02f747bb          	divw	a5,a4,a5
    80000238:	fcf42e23          	sw	a5,-36(s0)
    8000023c:	fdc42783          	lw	a5,-36(s0)
    80000240:	0007879b          	sext.w	a5,a5
    80000244:	faf046e3          	bgtz	a5,800001f0 <_ZL4itoaiPc+0x40>
    80000248:	fec42783          	lw	a5,-20(s0)
    8000024c:	fd043703          	ld	a4,-48(s0)
    80000250:	00f707b3          	add	a5,a4,a5
    80000254:	00078023          	sb	zero,0(a5)
    80000258:	fd043503          	ld	a0,-48(s0)
    8000025c:	eadff0ef          	jal	ra,80000108 <_ZL6strrevPc>
    80000260:	02813083          	ld	ra,40(sp)
    80000264:	02013403          	ld	s0,32(sp)
    80000268:	03010113          	addi	sp,sp,48
    8000026c:	00008067          	ret

0000000080000270 <_Z11bubble_sortv>:
    80000270:	fe010113          	addi	sp,sp,-32
    80000274:	00813c23          	sd	s0,24(sp)
    80000278:	02010413          	addi	s0,sp,32
    8000027c:	fe042423          	sw	zero,-24(s0)
    80000280:	0f80006f          	j	80000378 <_Z11bubble_sortv+0x108>
    80000284:	fe042623          	sw	zero,-20(s0)
    80000288:	0c80006f          	j	80000350 <_Z11bubble_sortv+0xe0>
    8000028c:	02000717          	auipc	a4,0x2000
    80000290:	d7470713          	addi	a4,a4,-652 # 82000000 <a>
    80000294:	fec42783          	lw	a5,-20(s0)
    80000298:	00279793          	slli	a5,a5,0x2
    8000029c:	00f707b3          	add	a5,a4,a5
    800002a0:	0007a683          	lw	a3,0(a5)
    800002a4:	fec42783          	lw	a5,-20(s0)
    800002a8:	0017879b          	addiw	a5,a5,1
    800002ac:	0007879b          	sext.w	a5,a5
    800002b0:	02000717          	auipc	a4,0x2000
    800002b4:	d5070713          	addi	a4,a4,-688 # 82000000 <a>
    800002b8:	00279793          	slli	a5,a5,0x2
    800002bc:	00f707b3          	add	a5,a4,a5
    800002c0:	0007a783          	lw	a5,0(a5)
    800002c4:	00068713          	mv	a4,a3
    800002c8:	06e7de63          	bge	a5,a4,80000344 <_Z11bubble_sortv+0xd4>
    800002cc:	02000717          	auipc	a4,0x2000
    800002d0:	d3470713          	addi	a4,a4,-716 # 82000000 <a>
    800002d4:	fec42783          	lw	a5,-20(s0)
    800002d8:	00279793          	slli	a5,a5,0x2
    800002dc:	00f707b3          	add	a5,a4,a5
    800002e0:	0007a783          	lw	a5,0(a5)
    800002e4:	fef42223          	sw	a5,-28(s0)
    800002e8:	fec42783          	lw	a5,-20(s0)
    800002ec:	0017879b          	addiw	a5,a5,1
    800002f0:	0007879b          	sext.w	a5,a5
    800002f4:	02000717          	auipc	a4,0x2000
    800002f8:	d0c70713          	addi	a4,a4,-756 # 82000000 <a>
    800002fc:	00279793          	slli	a5,a5,0x2
    80000300:	00f707b3          	add	a5,a4,a5
    80000304:	0007a703          	lw	a4,0(a5)
    80000308:	02000697          	auipc	a3,0x2000
    8000030c:	cf868693          	addi	a3,a3,-776 # 82000000 <a>
    80000310:	fec42783          	lw	a5,-20(s0)
    80000314:	00279793          	slli	a5,a5,0x2
    80000318:	00f687b3          	add	a5,a3,a5
    8000031c:	00e7a023          	sw	a4,0(a5)
    80000320:	fec42783          	lw	a5,-20(s0)
    80000324:	0017879b          	addiw	a5,a5,1
    80000328:	0007879b          	sext.w	a5,a5
    8000032c:	02000717          	auipc	a4,0x2000
    80000330:	cd470713          	addi	a4,a4,-812 # 82000000 <a>
    80000334:	00279793          	slli	a5,a5,0x2
    80000338:	00f707b3          	add	a5,a4,a5
    8000033c:	fe442703          	lw	a4,-28(s0)
    80000340:	00e7a023          	sw	a4,0(a5)
    80000344:	fec42783          	lw	a5,-20(s0)
    80000348:	0017879b          	addiw	a5,a5,1
    8000034c:	fef42623          	sw	a5,-20(s0)
    80000350:	01300793          	li	a5,19
    80000354:	fe842703          	lw	a4,-24(s0)
    80000358:	40e787bb          	subw	a5,a5,a4
    8000035c:	0007871b          	sext.w	a4,a5
    80000360:	fec42783          	lw	a5,-20(s0)
    80000364:	0007879b          	sext.w	a5,a5
    80000368:	f2e7c2e3          	blt	a5,a4,8000028c <_Z11bubble_sortv+0x1c>
    8000036c:	fe842783          	lw	a5,-24(s0)
    80000370:	0017879b          	addiw	a5,a5,1
    80000374:	fef42423          	sw	a5,-24(s0)
    80000378:	fe842783          	lw	a5,-24(s0)
    8000037c:	0007871b          	sext.w	a4,a5
    80000380:	01300793          	li	a5,19
    80000384:	f0e7d0e3          	bge	a5,a4,80000284 <_Z11bubble_sortv+0x14>
    80000388:	00000013          	nop
    8000038c:	00000013          	nop
    80000390:	01813403          	ld	s0,24(sp)
    80000394:	02010113          	addi	sp,sp,32
    80000398:	00008067          	ret

000000008000039c <main>:
    8000039c:	fe010113          	addi	sp,sp,-32
    800003a0:	00113c23          	sd	ra,24(sp)
    800003a4:	00813823          	sd	s0,16(sp)
    800003a8:	02010413          	addi	s0,sp,32
    800003ac:	ec5ff0ef          	jal	ra,80000270 <_Z11bubble_sortv>
    800003b0:	01000517          	auipc	a0,0x1000
    800003b4:	c5050513          	addi	a0,a0,-944 # 81000000 <_etext+0xfffbc0>
    800003b8:	ca9ff0ef          	jal	ra,80000060 <_ZL4putsPc>
    800003bc:	fe042623          	sw	zero,-20(s0)
    800003c0:	0500006f          	j	80000410 <main+0x74>
    800003c4:	02000717          	auipc	a4,0x2000
    800003c8:	c3c70713          	addi	a4,a4,-964 # 82000000 <a>
    800003cc:	fec42783          	lw	a5,-20(s0)
    800003d0:	00279793          	slli	a5,a5,0x2
    800003d4:	00f707b3          	add	a5,a4,a5
    800003d8:	0007a783          	lw	a5,0(a5)
    800003dc:	fe040713          	addi	a4,s0,-32
    800003e0:	00070593          	mv	a1,a4
    800003e4:	00078513          	mv	a0,a5
    800003e8:	dc9ff0ef          	jal	ra,800001b0 <_ZL4itoaiPc>
    800003ec:	fe040793          	addi	a5,s0,-32
    800003f0:	00078513          	mv	a0,a5
    800003f4:	c6dff0ef          	jal	ra,80000060 <_ZL4putsPc>
    800003f8:	01000517          	auipc	a0,0x1000
    800003fc:	c1850513          	addi	a0,a0,-1000 # 81000010 <_etext+0xfffbd0>
    80000400:	c61ff0ef          	jal	ra,80000060 <_ZL4putsPc>
    80000404:	fec42783          	lw	a5,-20(s0)
    80000408:	0017879b          	addiw	a5,a5,1
    8000040c:	fef42623          	sw	a5,-20(s0)
    80000410:	fec42703          	lw	a4,-20(s0)
    80000414:	01300793          	li	a5,19
    80000418:	fae7f6e3          	bgeu	a5,a4,800003c4 <main+0x28>
    8000041c:	01000517          	auipc	a0,0x1000
    80000420:	bfc50513          	addi	a0,a0,-1028 # 81000018 <_etext+0xfffbd8>
    80000424:	c3dff0ef          	jal	ra,80000060 <_ZL4putsPc>
    80000428:	00000793          	li	a5,0
    8000042c:	00078513          	mv	a0,a5
    80000430:	01813083          	ld	ra,24(sp)
    80000434:	01013403          	ld	s0,16(sp)
    80000438:	02010113          	addi	sp,sp,32
    8000043c:	00008067          	ret

Disassembly of section .rodata:

0000000081000000 <.rodata>:
    81000000:	6661                	.2byte	0x6661
    81000002:	6574                	.2byte	0x6574
    81000004:	2072                	.2byte	0x2072
    81000006:	74726f73          	csrrsi	t5,0x747,4
    8100000a:	203a                	.2byte	0x203a
    8100000c:	0000                	.2byte	0x0
    8100000e:	0000                	.2byte	0x0
    81000010:	002c                	.2byte	0x2c
    81000012:	0000                	.2byte	0x0
    81000014:	0000                	.2byte	0x0
    81000016:	0000                	.2byte	0x0
    81000018:	000a                	.2byte	0xa

Disassembly of section .data:

0000000082000000 <a>:
    82000000:	0002                	.2byte	0x2
    82000002:	0000                	.2byte	0x0
    82000004:	000c                	.2byte	0xc
    82000006:	0000                	.2byte	0x0
    82000008:	000e                	.2byte	0xe
    8200000a:	0000                	.2byte	0x0
    8200000c:	0006                	.2byte	0x6
    8200000e:	0000                	.2byte	0x0
    82000010:	000d                	.2byte	0xd
    82000012:	0000                	.2byte	0x0
    82000014:	0000000f          	fence	unknown,unknown
    82000018:	0010                	.2byte	0x10
    8200001a:	0000                	.2byte	0x0
    8200001c:	000a                	.2byte	0xa
    8200001e:	0000                	.2byte	0x0
    82000020:	0000                	.2byte	0x0
    82000022:	0000                	.2byte	0x0
    82000024:	0012                	.2byte	0x12
    82000026:	0000                	.2byte	0x0
    82000028:	0000000b          	.4byte	0xb
    8200002c:	00000013          	nop
    82000030:	0009                	.2byte	0x9
    82000032:	0000                	.2byte	0x0
    82000034:	0001                	.2byte	0x1
    82000036:	0000                	.2byte	0x0
    82000038:	00000007          	.4byte	0x7
    8200003c:	0005                	.2byte	0x5
    8200003e:	0000                	.2byte	0x0
    82000040:	0004                	.2byte	0x4
    82000042:	0000                	.2byte	0x0
    82000044:	00000003          	lb	zero,0(zero) # 0 <_start-0x80000000>
    82000048:	0008                	.2byte	0x8
    8200004a:	0000                	.2byte	0x0
    8200004c:	0011                	.2byte	0x11
	...

Disassembly of section .comment:

0000000000000000 <.comment>:
   0:	3a434347          	fmsub.d	ft6,ft6,ft4,ft7,rmm
   4:	2820                	.2byte	0x2820
   6:	6255                	.2byte	0x6255
   8:	6e75                	.2byte	0x6e75
   a:	7574                	.2byte	0x7574
   c:	3120                	.2byte	0x3120
   e:	2e31                	.2byte	0x2e31
  10:	2e34                	.2byte	0x2e34
  12:	2d30                	.2byte	0x2d30
  14:	7531                	.2byte	0x7531
  16:	7562                	.2byte	0x7562
  18:	746e                	.2byte	0x746e
  1a:	3175                	.2byte	0x3175
  1c:	327e                	.2byte	0x327e
  1e:	2e32                	.2byte	0x2e32
  20:	3430                	.2byte	0x3430
  22:	2029                	.2byte	0x2029
  24:	3131                	.2byte	0x3131
  26:	342e                	.2byte	0x342e
  28:	302e                	.2byte	0x302e
	...

Disassembly of section .riscv.attributes:

0000000000000000 <.riscv.attributes>:
   0:	2d41                	.2byte	0x2d41
   2:	0000                	.2byte	0x0
   4:	7200                	.2byte	0x7200
   6:	7369                	.2byte	0x7369
   8:	01007663          	bgeu	zero,a6,14 <_start-0x7fffffec>
   c:	00000023          	sb	zero,0(zero) # 0 <_start-0x80000000>
  10:	7205                	.2byte	0x7205
  12:	3676                	.2byte	0x3676
  14:	6934                	.2byte	0x6934
  16:	7032                	.2byte	0x7032
  18:	5f30                	.2byte	0x5f30
  1a:	326d                	.2byte	0x326d
  1c:	3070                	.2byte	0x3070
  1e:	615f 7032 5f30      	.byte	0x5f, 0x61, 0x32, 0x70, 0x30, 0x5f
  24:	3266                	.2byte	0x3266
  26:	3070                	.2byte	0x3070
  28:	645f 7032 0030      	.byte	0x5f, 0x64, 0x32, 0x70, 0x30, 0x00
