
./build/matrix_mul.elf:     file format elf64-littleriscv


Disassembly of section .text:

0000000080000000 <_start>:
    80000000:	00009117          	auipc	sp,0x9
    80000004:	00010113          	mv	sp,sp
    80000008:	058000ef          	jal	ra,80000060 <main>

000000008000000c <halt>:
    8000000c:	0000006f          	j	8000000c <halt>

0000000080000010 <_Z5errorv>:
    80000010:	ff010113          	addi	sp,sp,-16 # 80008ff0 <_stack_top+0x7ff0>
    80000014:	00813423          	sd	s0,8(sp)
    80000018:	01010413          	addi	s0,sp,16
    8000001c:	0000006f          	j	8000001c <_Z5errorv+0xc>

0000000080000020 <_Z5checkb>:
    80000020:	fe010113          	addi	sp,sp,-32
    80000024:	00113c23          	sd	ra,24(sp)
    80000028:	00813823          	sd	s0,16(sp)
    8000002c:	02010413          	addi	s0,sp,32
    80000030:	00050793          	mv	a5,a0
    80000034:	fef407a3          	sb	a5,-17(s0)
    80000038:	fef44783          	lbu	a5,-17(s0)
    8000003c:	0017c793          	xori	a5,a5,1
    80000040:	0ff7f793          	andi	a5,a5,255
    80000044:	00078463          	beqz	a5,8000004c <_Z5checkb+0x2c>
    80000048:	fc9ff0ef          	jal	ra,80000010 <_Z5errorv>
    8000004c:	00000013          	nop
    80000050:	01813083          	ld	ra,24(sp)
    80000054:	01013403          	ld	s0,16(sp)
    80000058:	02010113          	addi	sp,sp,32
    8000005c:	00008067          	ret

0000000080000060 <main>:
    80000060:	fe010113          	addi	sp,sp,-32
    80000064:	00113c23          	sd	ra,24(sp)
    80000068:	00813823          	sd	s0,16(sp)
    8000006c:	02010413          	addi	s0,sp,32
    80000070:	fe042623          	sw	zero,-20(s0)
    80000074:	fec42783          	lw	a5,-20(s0)
    80000078:	0007871b          	sext.w	a4,a5
    8000007c:	00900793          	li	a5,9
    80000080:	20e7ca63          	blt	a5,a4,80000294 <main+0x234>
    80000084:	fe042423          	sw	zero,-24(s0)
    80000088:	fe842783          	lw	a5,-24(s0)
    8000008c:	0007871b          	sext.w	a4,a5
    80000090:	00900793          	li	a5,9
    80000094:	1ce7c863          	blt	a5,a4,80000264 <main+0x204>
    80000098:	00000697          	auipc	a3,0x0
    8000009c:	6e868693          	addi	a3,a3,1768 # 80000780 <c>
    800000a0:	fe842603          	lw	a2,-24(s0)
    800000a4:	fec42703          	lw	a4,-20(s0)
    800000a8:	00070793          	mv	a5,a4
    800000ac:	00279793          	slli	a5,a5,0x2
    800000b0:	00e787b3          	add	a5,a5,a4
    800000b4:	00179793          	slli	a5,a5,0x1
    800000b8:	00c787b3          	add	a5,a5,a2
    800000bc:	00279793          	slli	a5,a5,0x2
    800000c0:	00f687b3          	add	a5,a3,a5
    800000c4:	0007a023          	sw	zero,0(a5)
    800000c8:	fe042223          	sw	zero,-28(s0)
    800000cc:	fe442783          	lw	a5,-28(s0)
    800000d0:	0007871b          	sext.w	a4,a5
    800000d4:	00900793          	li	a5,9
    800000d8:	0ee7c263          	blt	a5,a4,800001bc <main+0x15c>
    800000dc:	00000697          	auipc	a3,0x0
    800000e0:	6a468693          	addi	a3,a3,1700 # 80000780 <c>
    800000e4:	fe842603          	lw	a2,-24(s0)
    800000e8:	fec42703          	lw	a4,-20(s0)
    800000ec:	00070793          	mv	a5,a4
    800000f0:	00279793          	slli	a5,a5,0x2
    800000f4:	00e787b3          	add	a5,a5,a4
    800000f8:	00179793          	slli	a5,a5,0x1
    800000fc:	00c787b3          	add	a5,a5,a2
    80000100:	00279793          	slli	a5,a5,0x2
    80000104:	00f687b3          	add	a5,a3,a5
    80000108:	0007a683          	lw	a3,0(a5)
    8000010c:	00000617          	auipc	a2,0x0
    80000110:	1c460613          	addi	a2,a2,452 # 800002d0 <a>
    80000114:	fe442583          	lw	a1,-28(s0)
    80000118:	fec42703          	lw	a4,-20(s0)
    8000011c:	00070793          	mv	a5,a4
    80000120:	00279793          	slli	a5,a5,0x2
    80000124:	00e787b3          	add	a5,a5,a4
    80000128:	00179793          	slli	a5,a5,0x1
    8000012c:	00b787b3          	add	a5,a5,a1
    80000130:	00279793          	slli	a5,a5,0x2
    80000134:	00f607b3          	add	a5,a2,a5
    80000138:	0007a603          	lw	a2,0(a5)
    8000013c:	00000597          	auipc	a1,0x0
    80000140:	32458593          	addi	a1,a1,804 # 80000460 <b>
    80000144:	fe842503          	lw	a0,-24(s0)
    80000148:	fe442703          	lw	a4,-28(s0)
    8000014c:	00070793          	mv	a5,a4
    80000150:	00279793          	slli	a5,a5,0x2
    80000154:	00e787b3          	add	a5,a5,a4
    80000158:	00179793          	slli	a5,a5,0x1
    8000015c:	00a787b3          	add	a5,a5,a0
    80000160:	00279793          	slli	a5,a5,0x2
    80000164:	00f587b3          	add	a5,a1,a5
    80000168:	0007a783          	lw	a5,0(a5)
    8000016c:	02f607bb          	mulw	a5,a2,a5
    80000170:	0007879b          	sext.w	a5,a5
    80000174:	00f687bb          	addw	a5,a3,a5
    80000178:	0007869b          	sext.w	a3,a5
    8000017c:	00000617          	auipc	a2,0x0
    80000180:	60460613          	addi	a2,a2,1540 # 80000780 <c>
    80000184:	fe842583          	lw	a1,-24(s0)
    80000188:	fec42703          	lw	a4,-20(s0)
    8000018c:	00070793          	mv	a5,a4
    80000190:	00279793          	slli	a5,a5,0x2
    80000194:	00e787b3          	add	a5,a5,a4
    80000198:	00179793          	slli	a5,a5,0x1
    8000019c:	00b787b3          	add	a5,a5,a1
    800001a0:	00279793          	slli	a5,a5,0x2
    800001a4:	00f607b3          	add	a5,a2,a5
    800001a8:	00d7a023          	sw	a3,0(a5)
    800001ac:	fe442783          	lw	a5,-28(s0)
    800001b0:	0017879b          	addiw	a5,a5,1
    800001b4:	fef42223          	sw	a5,-28(s0)
    800001b8:	f15ff06f          	j	800000cc <main+0x6c>
    800001bc:	00000697          	auipc	a3,0x0
    800001c0:	5c468693          	addi	a3,a3,1476 # 80000780 <c>
    800001c4:	fe842603          	lw	a2,-24(s0)
    800001c8:	fec42703          	lw	a4,-20(s0)
    800001cc:	00070793          	mv	a5,a4
    800001d0:	00279793          	slli	a5,a5,0x2
    800001d4:	00e787b3          	add	a5,a5,a4
    800001d8:	00179793          	slli	a5,a5,0x1
    800001dc:	00c787b3          	add	a5,a5,a2
    800001e0:	00279793          	slli	a5,a5,0x2
    800001e4:	00f687b3          	add	a5,a3,a5
    800001e8:	0007a583          	lw	a1,0(a5)
    800001ec:	00000697          	auipc	a3,0x0
    800001f0:	40468693          	addi	a3,a3,1028 # 800005f0 <ans>
    800001f4:	fe842603          	lw	a2,-24(s0)
    800001f8:	fec42703          	lw	a4,-20(s0)
    800001fc:	00070793          	mv	a5,a4
    80000200:	00279793          	slli	a5,a5,0x2
    80000204:	00e787b3          	add	a5,a5,a4
    80000208:	00179793          	slli	a5,a5,0x1
    8000020c:	00c787b3          	add	a5,a5,a2
    80000210:	00279793          	slli	a5,a5,0x2
    80000214:	00f687b3          	add	a5,a3,a5
    80000218:	0007a783          	lw	a5,0(a5)
    8000021c:	00058713          	mv	a4,a1
    80000220:	40f707b3          	sub	a5,a4,a5
    80000224:	0017b793          	seqz	a5,a5
    80000228:	0ff7f793          	andi	a5,a5,255
    8000022c:	00078513          	mv	a0,a5
    80000230:	df1ff0ef          	jal	ra,80000020 <_Z5checkb>
    80000234:	fe442783          	lw	a5,-28(s0)
    80000238:	0007871b          	sext.w	a4,a5
    8000023c:	00a00793          	li	a5,10
    80000240:	40f707b3          	sub	a5,a4,a5
    80000244:	0017b793          	seqz	a5,a5
    80000248:	0ff7f793          	andi	a5,a5,255
    8000024c:	00078513          	mv	a0,a5
    80000250:	dd1ff0ef          	jal	ra,80000020 <_Z5checkb>
    80000254:	fe842783          	lw	a5,-24(s0)
    80000258:	0017879b          	addiw	a5,a5,1
    8000025c:	fef42423          	sw	a5,-24(s0)
    80000260:	e29ff06f          	j	80000088 <main+0x28>
    80000264:	fe842783          	lw	a5,-24(s0)
    80000268:	0007871b          	sext.w	a4,a5
    8000026c:	00a00793          	li	a5,10
    80000270:	40f707b3          	sub	a5,a4,a5
    80000274:	0017b793          	seqz	a5,a5
    80000278:	0ff7f793          	andi	a5,a5,255
    8000027c:	00078513          	mv	a0,a5
    80000280:	da1ff0ef          	jal	ra,80000020 <_Z5checkb>
    80000284:	fec42783          	lw	a5,-20(s0)
    80000288:	0017879b          	addiw	a5,a5,1
    8000028c:	fef42623          	sw	a5,-20(s0)
    80000290:	de5ff06f          	j	80000074 <main+0x14>
    80000294:	fec42783          	lw	a5,-20(s0)
    80000298:	0007871b          	sext.w	a4,a5
    8000029c:	00a00793          	li	a5,10
    800002a0:	40f707b3          	sub	a5,a4,a5
    800002a4:	0017b793          	seqz	a5,a5
    800002a8:	0ff7f793          	andi	a5,a5,255
    800002ac:	00078513          	mv	a0,a5
    800002b0:	d71ff0ef          	jal	ra,80000020 <_Z5checkb>
    800002b4:	00000793          	li	a5,0
    800002b8:	00078513          	mv	a0,a5
    800002bc:	01813083          	ld	ra,24(sp)
    800002c0:	01013403          	ld	s0,16(sp)
    800002c4:	02010113          	addi	sp,sp,32
    800002c8:	00008067          	ret
