
./build/recursion.elf:     file format elf64-littleriscv


Disassembly of section .text:

0000000080000000 <_start>:
    80000000:	02009117          	auipc	sp,0x2009
    80000004:	00010113          	mv	sp,sp
    80000008:	3f0000ef          	jal	ra,800003f8 <main>

000000008000000c <halt>:
    8000000c:	0000006f          	j	8000000c <halt>

0000000080000010 <_Z5errorv>:
    80000010:	ff010113          	addi	sp,sp,-16 # 82008ff0 <_stack_top+0x7ff0>
    80000014:	00813423          	sd	s0,8(sp)
    80000018:	01010413          	addi	s0,sp,16
    8000001c:	0000006f          	j	8000001c <_Z5errorv+0xc>

0000000080000020 <_Z5checkb>:
    80000020:	fe010113          	addi	sp,sp,-32
    80000024:	00113c23          	sd	ra,24(sp)
    80000028:	00813823          	sd	s0,16(sp)
    8000002c:	02010413          	addi	s0,sp,32
    80000030:	00050793          	mv	a5,a0
    80000034:	fef407a3          	sb	a5,-17(s0)
    80000038:	fef44783          	lbu	a5,-17(s0)
    8000003c:	0017c793          	xori	a5,a5,1
    80000040:	0ff7f793          	zext.b	a5,a5
    80000044:	00078463          	beqz	a5,8000004c <_Z5checkb+0x2c>
    80000048:	fc9ff0ef          	jal	ra,80000010 <_Z5errorv>
    8000004c:	00000013          	nop
    80000050:	01813083          	ld	ra,24(sp)
    80000054:	01013403          	ld	s0,16(sp)
    80000058:	02010113          	addi	sp,sp,32
    8000005c:	00008067          	ret

0000000080000060 <_Z2f0ii>:
    80000060:	fe010113          	addi	sp,sp,-32
    80000064:	00113c23          	sd	ra,24(sp)
    80000068:	00813823          	sd	s0,16(sp)
    8000006c:	02010413          	addi	s0,sp,32
    80000070:	00050793          	mv	a5,a0
    80000074:	00058713          	mv	a4,a1
    80000078:	fef42623          	sw	a5,-20(s0)
    8000007c:	00070793          	mv	a5,a4
    80000080:	fef42423          	sw	a5,-24(s0)
    80000084:	02000797          	auipc	a5,0x2000
    80000088:	fac78793          	addi	a5,a5,-84 # 82000030 <lvl>
    8000008c:	0007a703          	lw	a4,0(a5)
    80000090:	fe842783          	lw	a5,-24(s0)
    80000094:	0007879b          	sext.w	a5,a5
    80000098:	00f75a63          	bge	a4,a5,800000ac <_Z2f0ii+0x4c>
    8000009c:	02000797          	auipc	a5,0x2000
    800000a0:	f9478793          	addi	a5,a5,-108 # 82000030 <lvl>
    800000a4:	fe842703          	lw	a4,-24(s0)
    800000a8:	00e7a023          	sw	a4,0(a5)
    800000ac:	02000797          	auipc	a5,0x2000
    800000b0:	f8078793          	addi	a5,a5,-128 # 8200002c <rec>
    800000b4:	0007a783          	lw	a5,0(a5)
    800000b8:	0017879b          	addiw	a5,a5,1
    800000bc:	0007871b          	sext.w	a4,a5
    800000c0:	02000797          	auipc	a5,0x2000
    800000c4:	f6c78793          	addi	a5,a5,-148 # 8200002c <rec>
    800000c8:	00e7a023          	sw	a4,0(a5)
    800000cc:	fec42783          	lw	a5,-20(s0)
    800000d0:	0007879b          	sext.w	a5,a5
    800000d4:	04f05263          	blez	a5,80000118 <_Z2f0ii+0xb8>
    800000d8:	02000797          	auipc	a5,0x2000
    800000dc:	f2878793          	addi	a5,a5,-216 # 82000000 <func>
    800000e0:	0187b783          	ld	a5,24(a5)
    800000e4:	fec42703          	lw	a4,-20(s0)
    800000e8:	00070693          	mv	a3,a4
    800000ec:	00300713          	li	a4,3
    800000f0:	02e6c73b          	divw	a4,a3,a4
    800000f4:	0007071b          	sext.w	a4,a4
    800000f8:	fe842683          	lw	a3,-24(s0)
    800000fc:	0016869b          	addiw	a3,a3,1
    80000100:	0006869b          	sext.w	a3,a3
    80000104:	00068593          	mv	a1,a3
    80000108:	00070513          	mv	a0,a4
    8000010c:	000780e7          	jalr	a5
    80000110:	00050793          	mv	a5,a0
    80000114:	0080006f          	j	8000011c <_Z2f0ii+0xbc>
    80000118:	00100793          	li	a5,1
    8000011c:	00078513          	mv	a0,a5
    80000120:	01813083          	ld	ra,24(sp)
    80000124:	01013403          	ld	s0,16(sp)
    80000128:	02010113          	addi	sp,sp,32
    8000012c:	00008067          	ret

0000000080000130 <_Z2f1ii>:
    80000130:	fe010113          	addi	sp,sp,-32
    80000134:	00113c23          	sd	ra,24(sp)
    80000138:	00813823          	sd	s0,16(sp)
    8000013c:	02010413          	addi	s0,sp,32
    80000140:	00050793          	mv	a5,a0
    80000144:	00058713          	mv	a4,a1
    80000148:	fef42623          	sw	a5,-20(s0)
    8000014c:	00070793          	mv	a5,a4
    80000150:	fef42423          	sw	a5,-24(s0)
    80000154:	02000797          	auipc	a5,0x2000
    80000158:	edc78793          	addi	a5,a5,-292 # 82000030 <lvl>
    8000015c:	0007a703          	lw	a4,0(a5)
    80000160:	fe842783          	lw	a5,-24(s0)
    80000164:	0007879b          	sext.w	a5,a5
    80000168:	00f75a63          	bge	a4,a5,8000017c <_Z2f1ii+0x4c>
    8000016c:	02000797          	auipc	a5,0x2000
    80000170:	ec478793          	addi	a5,a5,-316 # 82000030 <lvl>
    80000174:	fe842703          	lw	a4,-24(s0)
    80000178:	00e7a023          	sw	a4,0(a5)
    8000017c:	02000797          	auipc	a5,0x2000
    80000180:	eb078793          	addi	a5,a5,-336 # 8200002c <rec>
    80000184:	0007a783          	lw	a5,0(a5)
    80000188:	0017879b          	addiw	a5,a5,1
    8000018c:	0007871b          	sext.w	a4,a5
    80000190:	02000797          	auipc	a5,0x2000
    80000194:	e9c78793          	addi	a5,a5,-356 # 8200002c <rec>
    80000198:	00e7a023          	sw	a4,0(a5)
    8000019c:	fec42783          	lw	a5,-20(s0)
    800001a0:	0007879b          	sext.w	a5,a5
    800001a4:	02f05e63          	blez	a5,800001e0 <_Z2f1ii+0xb0>
    800001a8:	02000797          	auipc	a5,0x2000
    800001ac:	e5878793          	addi	a5,a5,-424 # 82000000 <func>
    800001b0:	0007b783          	ld	a5,0(a5)
    800001b4:	fec42703          	lw	a4,-20(s0)
    800001b8:	fff7071b          	addiw	a4,a4,-1
    800001bc:	0007071b          	sext.w	a4,a4
    800001c0:	fe842683          	lw	a3,-24(s0)
    800001c4:	0016869b          	addiw	a3,a3,1
    800001c8:	0006869b          	sext.w	a3,a3
    800001cc:	00068593          	mv	a1,a3
    800001d0:	00070513          	mv	a0,a4
    800001d4:	000780e7          	jalr	a5
    800001d8:	00050793          	mv	a5,a0
    800001dc:	0080006f          	j	800001e4 <_Z2f1ii+0xb4>
    800001e0:	00100793          	li	a5,1
    800001e4:	00078513          	mv	a0,a5
    800001e8:	01813083          	ld	ra,24(sp)
    800001ec:	01013403          	ld	s0,16(sp)
    800001f0:	02010113          	addi	sp,sp,32
    800001f4:	00008067          	ret

00000000800001f8 <_Z2f2ii>:
    800001f8:	fe010113          	addi	sp,sp,-32
    800001fc:	00113c23          	sd	ra,24(sp)
    80000200:	00813823          	sd	s0,16(sp)
    80000204:	02010413          	addi	s0,sp,32
    80000208:	00050793          	mv	a5,a0
    8000020c:	00058713          	mv	a4,a1
    80000210:	fef42623          	sw	a5,-20(s0)
    80000214:	00070793          	mv	a5,a4
    80000218:	fef42423          	sw	a5,-24(s0)
    8000021c:	02000797          	auipc	a5,0x2000
    80000220:	e1478793          	addi	a5,a5,-492 # 82000030 <lvl>
    80000224:	0007a703          	lw	a4,0(a5)
    80000228:	fe842783          	lw	a5,-24(s0)
    8000022c:	0007879b          	sext.w	a5,a5
    80000230:	00f75a63          	bge	a4,a5,80000244 <_Z2f2ii+0x4c>
    80000234:	02000797          	auipc	a5,0x2000
    80000238:	dfc78793          	addi	a5,a5,-516 # 82000030 <lvl>
    8000023c:	fe842703          	lw	a4,-24(s0)
    80000240:	00e7a023          	sw	a4,0(a5)
    80000244:	02000797          	auipc	a5,0x2000
    80000248:	de878793          	addi	a5,a5,-536 # 8200002c <rec>
    8000024c:	0007a783          	lw	a5,0(a5)
    80000250:	0017879b          	addiw	a5,a5,1
    80000254:	0007871b          	sext.w	a4,a5
    80000258:	02000797          	auipc	a5,0x2000
    8000025c:	dd478793          	addi	a5,a5,-556 # 8200002c <rec>
    80000260:	00e7a023          	sw	a4,0(a5)
    80000264:	fec42783          	lw	a5,-20(s0)
    80000268:	0007879b          	sext.w	a5,a5
    8000026c:	02f05e63          	blez	a5,800002a8 <_Z2f2ii+0xb0>
    80000270:	02000797          	auipc	a5,0x2000
    80000274:	d9078793          	addi	a5,a5,-624 # 82000000 <func>
    80000278:	0087b783          	ld	a5,8(a5)
    8000027c:	fe842703          	lw	a4,-24(s0)
    80000280:	0017071b          	addiw	a4,a4,1
    80000284:	0007069b          	sext.w	a3,a4
    80000288:	fec42703          	lw	a4,-20(s0)
    8000028c:	00068593          	mv	a1,a3
    80000290:	00070513          	mv	a0,a4
    80000294:	000780e7          	jalr	a5
    80000298:	00050793          	mv	a5,a0
    8000029c:	0097879b          	addiw	a5,a5,9
    800002a0:	0007879b          	sext.w	a5,a5
    800002a4:	0080006f          	j	800002ac <_Z2f2ii+0xb4>
    800002a8:	00100793          	li	a5,1
    800002ac:	00078513          	mv	a0,a5
    800002b0:	01813083          	ld	ra,24(sp)
    800002b4:	01013403          	ld	s0,16(sp)
    800002b8:	02010113          	addi	sp,sp,32
    800002bc:	00008067          	ret

00000000800002c0 <_Z2f3ii>:
    800002c0:	fd010113          	addi	sp,sp,-48
    800002c4:	02113423          	sd	ra,40(sp)
    800002c8:	02813023          	sd	s0,32(sp)
    800002cc:	00913c23          	sd	s1,24(sp)
    800002d0:	03010413          	addi	s0,sp,48
    800002d4:	00050793          	mv	a5,a0
    800002d8:	00058713          	mv	a4,a1
    800002dc:	fcf42e23          	sw	a5,-36(s0)
    800002e0:	00070793          	mv	a5,a4
    800002e4:	fcf42c23          	sw	a5,-40(s0)
    800002e8:	02000797          	auipc	a5,0x2000
    800002ec:	d4878793          	addi	a5,a5,-696 # 82000030 <lvl>
    800002f0:	0007a703          	lw	a4,0(a5)
    800002f4:	fd842783          	lw	a5,-40(s0)
    800002f8:	0007879b          	sext.w	a5,a5
    800002fc:	00f75a63          	bge	a4,a5,80000310 <_Z2f3ii+0x50>
    80000300:	02000797          	auipc	a5,0x2000
    80000304:	d3078793          	addi	a5,a5,-720 # 82000030 <lvl>
    80000308:	fd842703          	lw	a4,-40(s0)
    8000030c:	00e7a023          	sw	a4,0(a5)
    80000310:	02000797          	auipc	a5,0x2000
    80000314:	d1c78793          	addi	a5,a5,-740 # 8200002c <rec>
    80000318:	0007a783          	lw	a5,0(a5)
    8000031c:	0017879b          	addiw	a5,a5,1
    80000320:	0007871b          	sext.w	a4,a5
    80000324:	02000797          	auipc	a5,0x2000
    80000328:	d0878793          	addi	a5,a5,-760 # 8200002c <rec>
    8000032c:	00e7a023          	sw	a4,0(a5)
    80000330:	fdc42783          	lw	a5,-36(s0)
    80000334:	0007879b          	sext.w	a5,a5
    80000338:	0af05263          	blez	a5,800003dc <_Z2f3ii+0x11c>
    8000033c:	02000797          	auipc	a5,0x2000
    80000340:	cc478793          	addi	a5,a5,-828 # 82000000 <func>
    80000344:	0107b703          	ld	a4,16(a5)
    80000348:	fdc42783          	lw	a5,-36(s0)
    8000034c:	01f7d69b          	srliw	a3,a5,0x1f
    80000350:	00f687bb          	addw	a5,a3,a5
    80000354:	4017d79b          	sraiw	a5,a5,0x1
    80000358:	0007879b          	sext.w	a5,a5
    8000035c:	fd842683          	lw	a3,-40(s0)
    80000360:	0016869b          	addiw	a3,a3,1
    80000364:	0006869b          	sext.w	a3,a3
    80000368:	00068593          	mv	a1,a3
    8000036c:	00078513          	mv	a0,a5
    80000370:	000700e7          	jalr	a4
    80000374:	00050793          	mv	a5,a0
    80000378:	00078713          	mv	a4,a5
    8000037c:	00070793          	mv	a5,a4
    80000380:	0017979b          	slliw	a5,a5,0x1
    80000384:	00e787bb          	addw	a5,a5,a4
    80000388:	0007849b          	sext.w	s1,a5
    8000038c:	02000797          	auipc	a5,0x2000
    80000390:	c7478793          	addi	a5,a5,-908 # 82000000 <func>
    80000394:	0107b703          	ld	a4,16(a5)
    80000398:	fdc42783          	lw	a5,-36(s0)
    8000039c:	01f7d69b          	srliw	a3,a5,0x1f
    800003a0:	00f687bb          	addw	a5,a3,a5
    800003a4:	4017d79b          	sraiw	a5,a5,0x1
    800003a8:	0007879b          	sext.w	a5,a5
    800003ac:	fd842683          	lw	a3,-40(s0)
    800003b0:	0016869b          	addiw	a3,a3,1
    800003b4:	0006869b          	sext.w	a3,a3
    800003b8:	00068593          	mv	a1,a3
    800003bc:	00078513          	mv	a0,a5
    800003c0:	000700e7          	jalr	a4
    800003c4:	00050793          	mv	a5,a0
    800003c8:	0017979b          	slliw	a5,a5,0x1
    800003cc:	0007879b          	sext.w	a5,a5
    800003d0:	00f487bb          	addw	a5,s1,a5
    800003d4:	0007879b          	sext.w	a5,a5
    800003d8:	0080006f          	j	800003e0 <_Z2f3ii+0x120>
    800003dc:	00100793          	li	a5,1
    800003e0:	00078513          	mv	a0,a5
    800003e4:	02813083          	ld	ra,40(sp)
    800003e8:	02013403          	ld	s0,32(sp)
    800003ec:	01813483          	ld	s1,24(sp)
    800003f0:	03010113          	addi	sp,sp,48
    800003f4:	00008067          	ret

00000000800003f8 <main>:
    800003f8:	fe010113          	addi	sp,sp,-32
    800003fc:	00113c23          	sd	ra,24(sp)
    80000400:	00813823          	sd	s0,16(sp)
    80000404:	02010413          	addi	s0,sp,32
    80000408:	02000797          	auipc	a5,0x2000
    8000040c:	bf878793          	addi	a5,a5,-1032 # 82000000 <func>
    80000410:	0007b783          	ld	a5,0(a5)
    80000414:	00000593          	li	a1,0
    80000418:	00004737          	lui	a4,0x4
    8000041c:	82370513          	addi	a0,a4,-2013 # 3823 <_start-0x7fffc7dd>
    80000420:	000780e7          	jalr	a5
    80000424:	00050793          	mv	a5,a0
    80000428:	fef42623          	sw	a5,-20(s0)
    8000042c:	02000797          	auipc	a5,0x2000
    80000430:	bf478793          	addi	a5,a5,-1036 # 82000020 <ans>
    80000434:	0007a703          	lw	a4,0(a5)
    80000438:	fec42783          	lw	a5,-20(s0)
    8000043c:	0007879b          	sext.w	a5,a5
    80000440:	40e787b3          	sub	a5,a5,a4
    80000444:	0017b793          	seqz	a5,a5
    80000448:	0ff7f793          	zext.b	a5,a5
    8000044c:	00078513          	mv	a0,a5
    80000450:	bd1ff0ef          	jal	ra,80000020 <_Z5checkb>
    80000454:	02000797          	auipc	a5,0x2000
    80000458:	bcc78793          	addi	a5,a5,-1076 # 82000020 <ans>
    8000045c:	0047a703          	lw	a4,4(a5)
    80000460:	02000797          	auipc	a5,0x2000
    80000464:	bcc78793          	addi	a5,a5,-1076 # 8200002c <rec>
    80000468:	0007a783          	lw	a5,0(a5)
    8000046c:	40f707b3          	sub	a5,a4,a5
    80000470:	0017b793          	seqz	a5,a5
    80000474:	0ff7f793          	zext.b	a5,a5
    80000478:	00078513          	mv	a0,a5
    8000047c:	ba5ff0ef          	jal	ra,80000020 <_Z5checkb>
    80000480:	02000797          	auipc	a5,0x2000
    80000484:	ba078793          	addi	a5,a5,-1120 # 82000020 <ans>
    80000488:	0087a703          	lw	a4,8(a5)
    8000048c:	02000797          	auipc	a5,0x2000
    80000490:	ba478793          	addi	a5,a5,-1116 # 82000030 <lvl>
    80000494:	0007a783          	lw	a5,0(a5)
    80000498:	40f707b3          	sub	a5,a4,a5
    8000049c:	0017b793          	seqz	a5,a5
    800004a0:	0ff7f793          	zext.b	a5,a5
    800004a4:	00078513          	mv	a0,a5
    800004a8:	b79ff0ef          	jal	ra,80000020 <_Z5checkb>
    800004ac:	00000793          	li	a5,0
    800004b0:	00078513          	mv	a0,a5
    800004b4:	01813083          	ld	ra,24(sp)
    800004b8:	01013403          	ld	s0,16(sp)
    800004bc:	02010113          	addi	sp,sp,32
    800004c0:	00008067          	ret
